; Function Attrs: mustprogress nofree norecurse nosync nounwind willreturn memory(read, inaccessiblemem: none) uwtable
define hidden noundef zeroext i1 @_ZN3smt17theory_array_base13is_select_argEPNS_5enodeE(ptr nocapture noundef nonnull readonly align 8 dereferenceable(249) %this, ptr noundef readonly %r) local_unnamed_addr #5 align 2 {
entry:
  %m_parents.i.i = getelementptr inbounds i8, ptr %r, i64 56
  %0 = load ptr, ptr %m_parents.i.i, align 8
  %cmp.i.i.i.i = icmp eq ptr %0, null
  br i1 %cmp.i.i.i.i, label %return, label %_ZNK3smt5enode7parents3endEv.exit

_ZNK3smt5enode7parents3endEv.exit:                ; preds = %entry
  %arrayidx.i.i.i.i = getelementptr inbounds i8, ptr %0, i64 -4
  %1 = load i32, ptr %arrayidx.i.i.i.i, align 4
  %2 = zext i32 %1 to i64
  %add.ptr.i.i.i = getelementptr inbounds ptr, ptr %0, i64 %2
  %cmp.not14.not = icmp eq i32 %1, 0
  br i1 %cmp.not14.not, label %return, label %for.body.lr.ph

for.body.lr.ph:                                   ; preds = %_ZNK3smt5enode7parents3endEv.exit
  %m_id.i.i.i = getelementptr inbounds i8, ptr %this, i64 8
  %3 = load i32, ptr %m_id.i.i.i, align 8
  br label %for.body

for.body:                                         ; preds = %for.body.lr.ph, %for.inc14
  %__begin1.015 = phi ptr [ %0, %for.body.lr.ph ], [ %incdec.ptr, %for.inc14 ]
  %4 = load ptr, ptr %__begin1.015, align 8
  %5 = load ptr, ptr %4, align 8
  %m_decl.i.i.i = getelementptr inbounds i8, ptr %5, i64 16
  %6 = load ptr, ptr %m_decl.i.i.i, align 8
  %m_info.i.i.i.i = getelementptr inbounds i8, ptr %6, i64 24
  %7 = load ptr, ptr %m_info.i.i.i.i, align 8
  %tobool.not.i.i.i.i = icmp eq ptr %7, null
  br i1 %tobool.not.i.i.i.i, label %for.inc14, label %_ZNK3smt17theory_array_base9is_selectEPKNS_5enodeE.exit

_ZNK3smt17theory_array_base9is_selectEPKNS_5enodeE.exit: ; preds = %for.body
  %8 = load i32, ptr %7, align 8
  %cmp.i.i.i.i.i = icmp eq i32 %8, %3
  %m_kind.i.i.i.i.i = getelementptr inbounds i8, ptr %7, i64 4
  %9 = load i32, ptr %m_kind.i.i.i.i.i, align 4
  %cmp2.i.i.i.i.i = icmp eq i32 %9, 1
  %10 = select i1 %cmp.i.i.i.i.i, i1 %cmp2.i.i.i.i.i, i1 false
  br i1 %10, label %for.cond5.preheader, label %for.inc14

for.cond5.preheader:                              ; preds = %_ZNK3smt17theory_array_base9is_selectEPKNS_5enodeE.exit
  %m_suppress_args.i = getelementptr inbounds i8, ptr %4, i64 44
  %bf.load.i = load i16, ptr %m_suppress_args.i, align 4
  %11 = and i16 %bf.load.i, 8
  %tobool.not.i = icmp eq i16 %11, 0
  %m_args.i = getelementptr inbounds i8, ptr %4, i64 112
  br i1 %tobool.not.i, label %for.cond5.preheader.split.us, label %for.inc14

for.cond5.preheader.split.us:                     ; preds = %for.cond5.preheader
  %m_num_args.i.i = getelementptr inbounds i8, ptr %5, i64 24
  %12 = load i32, ptr %m_num_args.i.i, align 8
  %umax = tail call i32 @llvm.umax.i32(i32 %12, i32 1)
  %wide.trip.count = zext i32 %umax to i64
  br label %for.cond5.us

for.cond5.us:                                     ; preds = %for.body8.us, %for.cond5.preheader.split.us
  %indvars.iv = phi i64 [ %indvars.iv.next, %for.body8.us ], [ 1, %for.cond5.preheader.split.us ]
  %exitcond.not = icmp eq i64 %indvars.iv, %wide.trip.count
  br i1 %exitcond.not, label %for.inc14, label %for.body8.us

for.body8.us:                                     ; preds = %for.cond5.us
  %arrayidx.i.us = getelementptr inbounds [0 x ptr], ptr %m_args.i, i64 0, i64 %indvars.iv
  %13 = load ptr, ptr %arrayidx.i.us, align 8
  %m_root.i.us = getelementptr inbounds i8, ptr %13, i64 8
  %14 = load ptr, ptr %m_root.i.us, align 8
  %cmp11.us = icmp eq ptr %14, %r
  %indvars.iv.next = add nuw nsw i64 %indvars.iv, 1
  br i1 %cmp11.us, label %return, label %for.cond5.us, !llvm.loop !30

for.inc14:                                        ; preds = %for.cond5.us, %for.cond5.preheader, %for.body, %_ZNK3smt17theory_array_base9is_selectEPKNS_5enodeE.exit
  %incdec.ptr = getelementptr inbounds i8, ptr %__begin1.015, i64 8
  %cmp.not.not = icmp eq ptr %incdec.ptr, %add.ptr.i.i.i
  br i1 %cmp.not.not, label %return, label %for.body

return:                                           ; preds = %for.inc14, %for.body8.us, %entry, %_ZNK3smt5enode7parents3endEv.exit
  %cmp.not13 = phi i1 [ false, %_ZNK3smt5enode7parents3endEv.exit ], [ false, %entry ], [ true, %for.body8.us ], [ false, %for.inc14 ]
  ret i1 %cmp.not13
}